; Function Attrs: mustprogress uwtable
define void @_ZN8proxygen26PassThroughHTTPCodecFilter21onGenerateFrameHeaderEmhmt(ptr nocapture noundef nonnull readonly align 8 dereferenceable(72) %this, i64 noundef %streamID, i8 noundef zeroext %type, i64 noundef %length, i16 noundef zeroext %version) unnamed_addr #3 align 2 {
entry:
  %callback_ = getelementptr inbounds i8, ptr %this, i64 32
  %0 = load ptr, ptr %callback_, align 8
  %conv = trunc i64 %length to i8
  %conv2 = zext i8 %type to i64
  %vtable = load ptr, ptr %0, align 8
  %vfn = getelementptr inbounds i8, ptr %vtable, i64 184
  %1 = load ptr, ptr %vfn, align 8
  tail call void %1(ptr noundef nonnull align 8 dereferenceable(8) %0, i64 noundef %streamID, i8 noundef zeroext %conv, i64 noundef %conv2, i16 noundef zeroext %version)
  ret void
}